; ModuleID = '50/2669.c'
source_filename = "50/2669.c"
target datalayout = "e-m:e-p270:32:32-p271:32:32-p272:64:64-i64:64-f80:128-n8:16:32:64-S128"
target triple = "x86_64-pc-linux-gnu"

@.str = private unnamed_addr constant [3 x i8] c"%d\00", align 1
@__const.main.a = private unnamed_addr constant [11 x i32] [i32 31, i32 28, i32 31, i32 30, i32 31, i32 30, i32 31, i32 31, i32 30, i32 31, i32 30], align 16
@.str.1 = private unnamed_addr constant [3 x i8] c"1\0A\00", align 1
@.str.2 = private unnamed_addr constant [4 x i8] c"%d\0A\00", align 1

; Function Attrs: noinline nounwind uwtable
define dso_local i32 @main() #0 {
  %1 = alloca i32, align 4
  %2 = alloca i32, align 4
  %3 = alloca i32, align 4
  %4 = alloca [11 x i32], align 16
  store i32 0, i32* %1, align 4
  %5 = call i32 (i8*, ...) @__isoc99_scanf(i8* getelementptr inbounds ([3 x i8], [3 x i8]* @.str, i64 0, i64 0), i32* %2)
  %6 = bitcast [11 x i32]* %4 to i8*
  call void @llvm.memcpy.p0i8.p0i8.i64(i8* align 16 %6, i8* align 16 bitcast ([11 x i32]* @__const.main.a to i8*), i64 44, i1 false)
  %7 = load i32, i32* %2, align 4
  %8 = add nsw i32 %7, 5
  %9 = srem i32 %8, 7
  %10 = icmp eq i32 %9, 5
  br i1 %10, label %11, label %13

11:                                               ; preds = %0
  %12 = call i32 (i8*, ...) @printf(i8* getelementptr inbounds ([3 x i8], [3 x i8]* @.str.1, i64 0, i64 0))
  br label %13

13:                                               ; preds = %11, %0
  %14 = load i32, i32* %2, align 4
  %15 = add nsw i32 %14, 5
  %16 = srem i32 %15, 7
  store i32 %16, i32* %2, align 4
  store i32 0, i32* %3, align 4
  br label %17

17:                                               ; preds = %43, %13
  %18 = load i32, i32* %3, align 4
  %19 = icmp slt i32 %18, 11
  br i1 %19, label %20, label %46

20:                                               ; preds = %17
  %21 = load i32, i32* %2, align 4
  %22 = load i32, i32* %3, align 4
  %23 = sext i32 %22 to i64
  %24 = getelementptr inbounds [11 x i32], [11 x i32]* %4, i64 0, i64 %23
  %25 = load i32, i32* %24, align 4
  %26 = srem i32 %25, 7
  %27 = add nsw i32 %21, %26
  %28 = srem i32 %27, 7
  %29 = icmp eq i32 %28, 5
  br i1 %29, label %30, label %34

30:                                               ; preds = %20
  %31 = load i32, i32* %3, align 4
  %32 = add nsw i32 %31, 2
  %33 = call i32 (i8*, ...) @printf(i8* getelementptr inbounds ([4 x i8], [4 x i8]* @.str.2, i64 0, i64 0), i32 %32)
  br label %34

34:                                               ; preds = %30, %20
  %35 = load i32, i32* %2, align 4
  %36 = load i32, i32* %3, align 4
  %37 = sext i32 %36 to i64
  %38 = getelementptr inbounds [11 x i32], [11 x i32]* %4, i64 0, i64 %37
  %39 = load i32, i32* %38, align 4
  %40 = srem i32 %39, 7
  %41 = add nsw i32 %35, %40
  %42 = srem i32 %41, 7
  store i32 %42, i32* %2, align 4
  br label %43

43:                                               ; preds = %34
  %44 = load i32, i32* %3, align 4
  %45 = add nsw i32 %44, 1
  store i32 %45, i32* %3, align 4
  br label %17

46:                                               ; preds = %17
  %47 = load i32, i32* %1, align 4
  ret i32 %47
}

declare dso_local i32 @__isoc99_scanf(i8*, ...) #1

; Function Attrs: argmemonly nounwind willreturn
declare void @llvm.memcpy.p0i8.p0i8.i64(i8* noalias nocapture writeonly, i8* noalias nocapture readonly, i64, i1 immarg) #2

declare dso_local i32 @printf(i8*, ...) #1


!llvm.module.flags = !{!0}
!llvm.ident = !{!1}

!0 = !{i32 1, !"wchar_size", i32 4}
!1 = !{!"clang version 10.0.0-4ubuntu1 "}
